; Function Attrs: mustprogress nofree norecurse nosync nounwind willreturn memory(read, inaccessiblemem: none) uwtable
define hidden noundef i64 @_ZNK6google8protobuf20stringpiece_internal11StringPiece16find_last_not_ofEcm(ptr noundef nonnull readonly align 8 captures(none) dereferenceable(16) %0, i8 noundef signext %1, i64 noundef %2) local_unnamed_addr #9 align 2 {
  %4 = getelementptr inbounds nuw i8, ptr %0, i64 8
  %5 = load i64, ptr %4, align 8, !tbaa !10
  %6 = icmp eq i64 %5, 0
  br i1 %6, label %.loopexit, label %7

7:                                                ; preds = %3
  %8 = add i64 %5, -1
  %.sroa.speculated = tail call i64 @llvm.umin.i64(i64 %8, i64 %2)
  %9 = load ptr, ptr %0, align 8, !tbaa !3
  %10 = getelementptr inbounds nuw i8, ptr %9, i64 %.sroa.speculated
  %11 = load i8, ptr %10, align 1, !tbaa !16
  %.not10 = icmp eq i8 %11, %1
  br i1 %.not10, label %.lr.ph, label %.loopexit

.lr.ph:                                           ; preds = %7, %13
  %.011 = phi i64 [ %14, %13 ], [ %.sroa.speculated, %7 ]
  %12 = icmp eq i64 %.011, 0
  br i1 %12, label %.loopexit, label %13

13:                                               ; preds = %.lr.ph
  %14 = add i64 %.011, -1
  %15 = getelementptr inbounds nuw i8, ptr %9, i64 %14
  %16 = load i8, ptr %15, align 1, !tbaa !16
  %.not = icmp eq i8 %16, %1
  br i1 %.not, label %.lr.ph, label %.loopexit, !llvm.loop !28

.loopexit:                                        ; preds = %.lr.ph, %13, %7, %3
  %.06 = phi i64 [ -1, %3 ], [ %.sroa.speculated, %7 ], [ -1, %.lr.ph ], [ %14, %13 ]
  ret i64 %.06
}